target datalayout = "e-m:e-p270:32:32-p271:32:32-p272:64:64-i64:64-i128:128-f80:128-n8:16:32:64-S128"
target triple = "x86_64-pc-linux-gnu"

%struct.grpc_slice = type { ptr, %"union.grpc_slice::grpc_slice_data" }
%"union.grpc_slice::grpc_slice_data" = type { %"struct.grpc_slice::grpc_slice_data::grpc_slice_refcounted", [8 x i8] }
%"struct.grpc_slice::grpc_slice_data::grpc_slice_refcounted" = type { i64, ptr }
%"class.grpc_core::SliceBuffer" = type { %struct.grpc_slice_buffer }
%struct.grpc_slice_buffer = type { ptr, ptr, i64, i64, i64, [6 x %struct.grpc_slice] }
%"struct.grpc_slice::grpc_slice_data::grpc_slice_inlined" = type { i8, [23 x i8] }
%"class.grpc_core::slice_detail::BaseSlice" = type { %struct.grpc_slice }
%"class.grpc_core::Slice" = type { %"class.grpc_core::slice_detail::BaseSlice" }
%"class.absl::lts_20240722::log_internal::Voidify" = type { i8 }
%"class.absl::lts_20240722::log_internal::LogMessageFatal" = type { %"class.absl::lts_20240722::log_internal::LogMessage" }
%"class.absl::lts_20240722::log_internal::LogMessage" = type { %"class.absl::lts_20240722::base_internal::ErrnoSaver", %"class.std::unique_ptr" }
%"class.absl::lts_20240722::base_internal::ErrnoSaver" = type { i32 }
%"class.std::unique_ptr" = type { %"struct.std::__uniq_ptr_data" }
%"struct.std::__uniq_ptr_data" = type { %"class.std::__uniq_ptr_impl" }
%"class.std::__uniq_ptr_impl" = type { %"class.std::tuple" }
%"class.std::tuple" = type { %"struct.std::_Tuple_impl" }
%"struct.std::_Tuple_impl" = type { %"struct.std::_Head_base.1" }
%"struct.std::_Head_base.1" = type { ptr }
%"class.std::basic_string_view" = type { i64, ptr }
%"class.std::__cxx11::basic_string" = type { %"struct.std::__cxx11::basic_string<char>::_Alloc_hider", i64, %union.anon }
%"struct.std::__cxx11::basic_string<char>::_Alloc_hider" = type { ptr }
%union.anon = type { i64, [8 x i8] }

@.str = private unnamed_addr constant [122 x i8] c"generated/home/dtcxzyw/WorkSpace/Projects/compilers/llvm-opt-benchmark/bench/grpc/grpc/src/core/lib/slice/slice_buffer.cc\00", align 1
@.str.3 = private unnamed_addr constant [15 x i8] c"sb->count > 0u\00", align 1

; Function Attrs: mustprogress nounwind uwtable
define available_externally noundef ptr @_ZNKSt7__cxx1112basic_stringIcSt11char_traitsIcESaIcEE7_M_dataEv(ptr noundef nonnull align 8 dereferenceable(32) %0) #6 align 2 {
  %2 = alloca ptr, align 8
  store ptr %0, ptr %2, align 8, !tbaa !35
  %3 = load ptr, ptr %2, align 8
  %4 = getelementptr inbounds nuw %"class.std::__cxx11::basic_string", ptr %3, i32 0, i32 0
  %5 = getelementptr inbounds nuw %"struct.std::__cxx11::basic_string<char>::_Alloc_hider", ptr %4, i32 0, i32 0
  %6 = load ptr, ptr %5, align 8, !tbaa !99
  ret ptr %6
}

; Function Attrs: mustprogress nounwind uwtable
define linkonce_odr void @_ZNSt17basic_string_viewIcSt11char_traitsIcEEC2EPKcm(ptr noundef nonnull align 8 dereferenceable(16) %0, ptr noundef %1, i64 noundef %2) unnamed_addr #6 comdat align 2 {
  %4 = alloca ptr, align 8
  %5 = alloca ptr, align 8
  %6 = alloca i64, align 8
  store ptr %0, ptr %4, align 8, !tbaa !48
  store ptr %1, ptr %5, align 8, !tbaa !41
  store i64 %2, ptr %6, align 8, !tbaa !16
  %7 = load ptr, ptr %4, align 8
  %8 = getelementptr inbounds nuw %"class.std::basic_string_view", ptr %7, i32 0, i32 0
  %9 = load i64, ptr %6, align 8, !tbaa !16
  store i64 %9, ptr %8, align 8, !tbaa !50
  %10 = getelementptr inbounds nuw %"class.std::basic_string_view", ptr %7, i32 0, i32 1
  %11 = load ptr, ptr %5, align 8, !tbaa !41
  store ptr %11, ptr %10, align 8, !tbaa !52
  ret void
}

; Function Attrs: mustprogress nounwind uwtable
define available_externally noundef i64 @_ZNKSt7__cxx1112basic_stringIcSt11char_traitsIcESaIcEE4sizeEv(ptr noundef nonnull align 8 dereferenceable(32) %0) #6 align 2 {
  %2 = alloca ptr, align 8
  store ptr %0, ptr %2, align 8, !tbaa !35
  %3 = load ptr, ptr %2, align 8
  %4 = getelementptr inbounds nuw %"class.std::__cxx11::basic_string", ptr %3, i32 0, i32 1
  %5 = load i64, ptr %4, align 8, !tbaa !96
  ret i64 %5
}

; Function Attrs: mustprogress nounwind uwtable
define available_externally noundef ptr @_ZNKSt7__cxx1112basic_stringIcSt11char_traitsIcESaIcEE4dataEv(ptr noundef nonnull align 8 dereferenceable(32) %0) #6 align 2 {
  %2 = alloca ptr, align 8
  store ptr %0, ptr %2, align 8, !tbaa !35
  %3 = load ptr, ptr %2, align 8
  %4 = call noundef ptr @_ZNKSt7__cxx1112basic_stringIcSt11char_traitsIcESaIcEE7_M_dataEv(ptr noundef nonnull align 8 dereferenceable(32) %3)
  ret ptr %4
}

; Function Attrs: mustprogress nounwind uwtable
define linkonce_odr void @_ZN9grpc_core12slice_detail9BaseSliceC2ERK10grpc_slice(ptr noundef nonnull align 8 dereferenceable(32) %0, ptr noundef nonnull align 8 dereferenceable(32) %1) unnamed_addr #6 comdat align 2 {
  %3 = alloca ptr, align 8
  %4 = alloca ptr, align 8
  store ptr %0, ptr %3, align 8, !tbaa !26
  store ptr %1, ptr %4, align 8, !tbaa !17
  %5 = load ptr, ptr %3, align 8
  %6 = getelementptr inbounds nuw %"class.grpc_core::slice_detail::BaseSlice", ptr %5, i32 0, i32 0
  %7 = load ptr, ptr %4, align 8, !tbaa !17
  call void @llvm.memcpy.p0.p0.i64(ptr align 8 %6, ptr align 8 %7, i64 32, i1 false), !tbaa.struct !24
  ret void
}

; Function Attrs: mustprogress nounwind uwtable
define linkonce_odr void @_ZNKO4absl12lts_2024072212log_internal7VoidifyaaINS1_10LogMessageEEEvRKT_(ptr noundef nonnull align 1 dereferenceable(1) %0, ptr noundef nonnull align 8 dereferenceable(16) %1) #6 comdat align 2 {
  %3 = alloca ptr, align 8
  %4 = alloca ptr, align 8
  store ptr %0, ptr %3, align 8, !tbaa !44
  store ptr %1, ptr %4, align 8, !tbaa !46
  ret void
}

; Function Attrs: mustprogress nounwind uwtable
define linkonce_odr noundef nonnull align 8 dereferenceable(16) ptr @_ZN4absl12lts_2024072212log_internal10LogMessage14InternalStreamEv(ptr noundef nonnull align 8 dereferenceable(16) %0) #6 comdat align 2 {
  %2 = alloca ptr, align 8
  store ptr %0, ptr %2, align 8, !tbaa !46
  %3 = load ptr, ptr %2, align 8
  ret ptr %3
}

; Function Attrs: mustprogress nounwind uwtable
define available_externally { i64, ptr } @_ZNKSt7__cxx1112basic_stringIcSt11char_traitsIcESaIcEEcvSt17basic_string_viewIcS2_EEv(ptr noundef nonnull align 8 dereferenceable(32) %0) #6 align 2 {
  %2 = alloca %"class.std::basic_string_view", align 8
  %3 = alloca ptr, align 8
  store ptr %0, ptr %3, align 8, !tbaa !35
  %4 = load ptr, ptr %3, align 8
  %5 = call noundef ptr @_ZNKSt7__cxx1112basic_stringIcSt11char_traitsIcESaIcEE4dataEv(ptr noundef nonnull align 8 dereferenceable(32) %4) #3
  %6 = call noundef i64 @_ZNKSt7__cxx1112basic_stringIcSt11char_traitsIcESaIcEE4sizeEv(ptr noundef nonnull align 8 dereferenceable(32) %4) #3
  call void @_ZNSt17basic_string_viewIcSt11char_traitsIcEEC2EPKcm(ptr noundef nonnull align 8 dereferenceable(16) %2, ptr noundef %5, i64 noundef %6) #3
  %7 = load { i64, ptr }, ptr %2, align 8
  ret { i64, ptr } %7
}

; Function Attrs: inlinehint mustprogress uwtable
define linkonce_odr noundef ptr @_ZN4absl12lts_2024072212log_internal12Check_GTImplImjEEPNSt7__cxx1112basic_stringIcSt11char_traitsIcESaIcEEERKT_RKT0_PKc(ptr noundef nonnull align 8 dereferenceable(8) %0, ptr noundef nonnull align 4 dereferenceable(4) %1, ptr noundef %2) #7 comdat {
  %4 = alloca ptr, align 8
  %5 = alloca ptr, align 8
  %6 = alloca ptr, align 8
  store ptr %0, ptr %4, align 8, !tbaa !60
  store ptr %1, ptr %5, align 8, !tbaa !70
  store ptr %2, ptr %6, align 8, !tbaa !41
  %7 = load ptr, ptr %4, align 8, !tbaa !60
  %8 = load i64, ptr %7, align 8, !tbaa !16
  %9 = load ptr, ptr %5, align 8, !tbaa !70
  %10 = load i32, ptr %9, align 4, !tbaa !33
  %11 = zext i32 %10 to i64
  %12 = icmp ugt i64 %8, %11
  %13 = zext i1 %12 to i64
  %14 = call i64 @llvm.expect.i64(i64 %13, i64 1)
  %15 = icmp ne i64 %14, 0
  br i1 %15, label %16, label %17

16:                                               ; preds = %3
  br label %25

17:                                               ; preds = %3
  %18 = load ptr, ptr %4, align 8, !tbaa !60
  %19 = load i64, ptr %18, align 8, !tbaa !16
  %20 = load ptr, ptr %5, align 8, !tbaa !70
  %21 = load i32, ptr %20, align 4, !tbaa !33
  %22 = zext i32 %21 to i64
  %23 = load ptr, ptr %6, align 8, !tbaa !41
  %24 = call noundef nonnull ptr @_ZN4absl12lts_2024072212log_internal17MakeCheckOpStringImlEEPNSt7__cxx1112basic_stringIcSt11char_traitsIcESaIcEEET_T0_PKc(i64 noundef %19, i64 noundef %22, ptr noundef %23)
  br label %25

25:                                               ; preds = %17, %16
  %26 = phi ptr [ null, %16 ], [ %24, %17 ]
  ret ptr %26
}

; Function Attrs: inlinehint mustprogress nounwind uwtable
define linkonce_odr noundef i32 @_ZN4absl12lts_2024072212log_internal21GetReferenceableValueEj(i32 noundef %0) #13 comdat {
  %2 = alloca i32, align 4
  store i32 %0, ptr %2, align 4, !tbaa !33
  %3 = load i32, ptr %2, align 4, !tbaa !33
  ret i32 %3
}

; Function Attrs: inlinehint mustprogress nounwind uwtable
define linkonce_odr noundef i64 @_ZN4absl12lts_2024072212log_internal21GetReferenceableValueEm(i64 noundef %0) #13 comdat {
  %2 = alloca i64, align 8
  store i64 %0, ptr %2, align 8, !tbaa !16
  %3 = load i64, ptr %2, align 8, !tbaa !16
  ret i64 %3
}

; Function Attrs: mustprogress uwtable
define linkonce_odr void @_ZN9grpc_core5SliceC2ERK10grpc_slice(ptr noundef nonnull align 8 dereferenceable(32) %0, ptr noundef nonnull align 8 dereferenceable(32) %1) unnamed_addr #4 comdat align 2 {
  %3 = alloca ptr, align 8
  %4 = alloca ptr, align 8
  store ptr %0, ptr %3, align 8, !tbaa !8
  store ptr %1, ptr %4, align 8, !tbaa !17
  %5 = load ptr, ptr %3, align 8
  %6 = load ptr, ptr %4, align 8, !tbaa !17
  call void @_ZN9grpc_core12slice_detail9BaseSliceC2ERK10grpc_slice(ptr noundef nonnull align 8 dereferenceable(32) %5, ptr noundef nonnull align 8 dereferenceable(32) %6)
  ret void
}

; Function Attrs: mustprogress uwtable
define void @grpc_slice_buffer_take_first(ptr dead_on_unwind noalias writable sret(%struct.grpc_slice) align 8 %0, ptr noundef %1) #4 personality ptr @__gxx_personality_v0 {
  %3 = alloca ptr, align 8
  %4 = alloca ptr, align 8
  %5 = alloca i64, align 8
  %6 = alloca i32, align 4
  %7 = alloca %"class.absl::lts_20240722::log_internal::Voidify", align 1
  %8 = alloca %"class.absl::lts_20240722::log_internal::LogMessageFatal", align 8
  %9 = alloca %"class.std::basic_string_view", align 8
  %10 = alloca ptr, align 8
  %11 = alloca i32, align 4
  store ptr %1, ptr %3, align 8, !tbaa !10
  br label %12

12:                                               ; preds = %2
  call void @llvm.lifetime.start.p0(i64 8, ptr %4) #3
  call void @llvm.lifetime.start.p0(i64 8, ptr %5) #3
  %13 = load ptr, ptr %3, align 8, !tbaa !10
  %14 = getelementptr inbounds nuw %struct.grpc_slice_buffer, ptr %13, i32 0, i32 2
  %15 = load i64, ptr %14, align 8, !tbaa !12
  %16 = call noundef i64 @_ZN4absl12lts_2024072212log_internal21GetReferenceableValueEm(i64 noundef %15)
  store i64 %16, ptr %5, align 8, !tbaa !16
  call void @llvm.lifetime.start.p0(i64 4, ptr %6) #3
  %17 = call noundef i32 @_ZN4absl12lts_2024072212log_internal21GetReferenceableValueEj(i32 noundef 0)
  store i32 %17, ptr %6, align 4, !tbaa !33
  %18 = call noundef ptr @_ZN4absl12lts_2024072212log_internal12Check_GTImplImjEEPNSt7__cxx1112basic_stringIcSt11char_traitsIcESaIcEEERKT_RKT0_PKc(ptr noundef nonnull align 8 dereferenceable(8) %5, ptr noundef nonnull align 4 dereferenceable(4) %6, ptr noundef @.str.3)
  call void @llvm.lifetime.end.p0(i64 4, ptr %6) #3
  call void @llvm.lifetime.end.p0(i64 8, ptr %5) #3
  store ptr %18, ptr %4, align 8, !tbaa !35
  %19 = load ptr, ptr %4, align 8, !tbaa !35
  %20 = icmp ne ptr %19, null
  br i1 %20, label %22, label %21

21:                                               ; preds = %12
  call void @llvm.lifetime.end.p0(i64 8, ptr %4) #3
  br label %41

22:                                               ; preds = %12
  call void @llvm.lifetime.start.p0(i64 1, ptr %7) #3
  call void @llvm.lifetime.start.p0(i64 16, ptr %8) #3
  %23 = load ptr, ptr %4, align 8, !tbaa !35
  %24 = call { i64, ptr } @_ZNKSt7__cxx1112basic_stringIcSt11char_traitsIcESaIcEEcvSt17basic_string_viewIcS2_EEv(ptr noundef nonnull align 8 dereferenceable(32) %23) #3
  %25 = getelementptr inbounds nuw { i64, ptr }, ptr %9, i32 0, i32 0
  %26 = extractvalue { i64, ptr } %24, 0
  store i64 %26, ptr %25, align 8
  %27 = getelementptr inbounds nuw { i64, ptr }, ptr %9, i32 0, i32 1
  %28 = extractvalue { i64, ptr } %24, 1
  store ptr %28, ptr %27, align 8
  %29 = getelementptr inbounds nuw { i64, ptr }, ptr %9, i32 0, i32 0
  %30 = load i64, ptr %29, align 8
  %31 = getelementptr inbounds nuw { i64, ptr }, ptr %9, i32 0, i32 1
  %32 = load ptr, ptr %31, align 8
  call void @_ZN4absl12lts_2024072212log_internal15LogMessageFatalC1EPKciSt17basic_string_viewIcSt11char_traitsIcEE(ptr noundef nonnull align 8 dereferenceable(16) %8, ptr noundef @.str, i32 noundef 496, i64 %30, ptr %32) #20
  %33 = invoke noundef nonnull align 8 dereferenceable(16) ptr @_ZN4absl12lts_2024072212log_internal10LogMessage14InternalStreamEv(ptr noundef nonnull align 8 dereferenceable(16) %8)
          to label %34 unwind label %36

34:                                               ; preds = %22
  invoke void @_ZNKO4absl12lts_2024072212log_internal7VoidifyaaINS1_10LogMessageEEEvRKT_(ptr noundef nonnull align 1 dereferenceable(1) %7, ptr noundef nonnull align 8 dereferenceable(16) %33)
          to label %35 unwind label %36

35:                                               ; preds = %34
  call void @_ZN4absl12lts_2024072212log_internal15LogMessageFatalD1Ev(ptr noundef nonnull align 8 dereferenceable(16) %8) #19
  unreachable

36:                                               ; preds = %34, %22
  %37 = landingpad { ptr, i32 }
          cleanup
  %38 = extractvalue { ptr, i32 } %37, 0
  store ptr %38, ptr %10, align 8
  %39 = extractvalue { ptr, i32 } %37, 1
  store i32 %39, ptr %11, align 4
  call void @_ZN4absl12lts_2024072212log_internal15LogMessageFatalD1Ev(ptr noundef nonnull align 8 dereferenceable(16) %8) #19
  unreachable

40:                                               ; No predecessors!
  call void @llvm.lifetime.end.p0(i64 16, ptr %8) #3
  call void @llvm.lifetime.end.p0(i64 1, ptr %7) #3
  call void @llvm.lifetime.end.p0(i64 8, ptr %4) #3
  br label %72

41:                                               ; preds = %21
  %42 = load ptr, ptr %3, align 8, !tbaa !10
  %43 = getelementptr inbounds nuw %struct.grpc_slice_buffer, ptr %42, i32 0, i32 1
  %44 = load ptr, ptr %43, align 8, !tbaa !18
  %45 = getelementptr inbounds %struct.grpc_slice, ptr %44, i64 0
  call void @llvm.memcpy.p0.p0.i64(ptr align 8 %0, ptr align 8 %45, i64 32, i1 false), !tbaa.struct !24
  %46 = load ptr, ptr %3, align 8, !tbaa !10
  %47 = getelementptr inbounds nuw %struct.grpc_slice_buffer, ptr %46, i32 0, i32 1
  %48 = load ptr, ptr %47, align 8, !tbaa !18
  %49 = getelementptr inbounds nuw %struct.grpc_slice, ptr %48, i32 1
  store ptr %49, ptr %47, align 8, !tbaa !18
  %50 = load ptr, ptr %3, align 8, !tbaa !10
  %51 = getelementptr inbounds nuw %struct.grpc_slice_buffer, ptr %50, i32 0, i32 2
  %52 = load i64, ptr %51, align 8, !tbaa !12
  %53 = add i64 %52, -1
  store i64 %53, ptr %51, align 8, !tbaa !12
  %54 = getelementptr inbounds nuw %struct.grpc_slice, ptr %0, i32 0, i32 0
  %55 = load ptr, ptr %54, align 8, !tbaa !19
  %56 = icmp ne ptr %55, null
  br i1 %56, label %57, label %61

57:                                               ; preds = %41
  %58 = getelementptr inbounds nuw %struct.grpc_slice, ptr %0, i32 0, i32 1
  %59 = getelementptr inbounds nuw %"struct.grpc_slice::grpc_slice_data::grpc_slice_refcounted", ptr %58, i32 0, i32 0
  %60 = load i64, ptr %59, align 8, !tbaa !22
  br label %66

61:                                               ; preds = %41
  %62 = getelementptr inbounds nuw %struct.grpc_slice, ptr %0, i32 0, i32 1
  %63 = getelementptr inbounds nuw %"struct.grpc_slice::grpc_slice_data::grpc_slice_inlined", ptr %62, i32 0, i32 0
  %64 = load i8, ptr %63, align 8, !tbaa !22
  %65 = zext i8 %64 to i64
  br label %66

66:                                               ; preds = %61, %57
  %67 = phi i64 [ %60, %57 ], [ %65, %61 ]
  %68 = load ptr, ptr %3, align 8, !tbaa !10
  %69 = getelementptr inbounds nuw %struct.grpc_slice_buffer, ptr %68, i32 0, i32 4
  %70 = load i64, ptr %69, align 8, !tbaa !23
  %71 = sub i64 %70, %67
  store i64 %71, ptr %69, align 8, !tbaa !23
  ret void

72:                                               ; preds = %40
  %73 = load ptr, ptr %10, align 8
  %74 = load i32, ptr %11, align 4
  %75 = insertvalue { ptr, i32 } poison, ptr %73, 0
  %76 = insertvalue { ptr, i32 } %75, i32 %74, 1
  resume { ptr, i32 } %76
}

; Function Attrs: mustprogress uwtable
define void @_ZN9grpc_core11SliceBuffer9TakeFirstEv(ptr dead_on_unwind noalias writable sret(%"class.grpc_core::Slice") align 8 %0, ptr noundef nonnull align 8 dereferenceable(232) %1) #4 align 2 {
  %3 = alloca ptr, align 8
  %4 = alloca ptr, align 8
  %5 = alloca %struct.grpc_slice, align 8
  store ptr %0, ptr %3, align 8
  store ptr %1, ptr %4, align 8, !tbaa !3
  %6 = load ptr, ptr %4, align 8
  call void @llvm.lifetime.start.p0(i64 32, ptr %5) #3
  %7 = getelementptr inbounds nuw %"class.grpc_core::SliceBuffer", ptr %6, i32 0, i32 0
  call void @grpc_slice_buffer_take_first(ptr dead_on_unwind writable sret(%struct.grpc_slice) align 8 %5, ptr noundef %7)
  call void @_ZN9grpc_core5SliceC2ERK10grpc_slice(ptr noundef nonnull align 8 dereferenceable(32) %0, ptr noundef nonnull align 8 dereferenceable(32) %5)
  call void @llvm.lifetime.end.p0(i64 32, ptr %5) #3
  ret void
}