; Function Attrs: mustprogress uwtable
define void @_ZN9grpc_core11SliceBuffer9TakeFirstEv(ptr dead_on_unwind noalias writable writeonly sret(%"class.grpc_core::Slice") align 8 captures(none) %0, ptr noundef nonnull align 8 captures(none) dereferenceable(232) %1) local_unnamed_addr #3 align 2 personality ptr @__gxx_personality_v0 {
  %3 = alloca %"class.absl::lts_20240722::log_internal::LogMessageFatal", align 8
  %4 = getelementptr inbounds nuw i8, ptr %1, i64 16
  %5 = load i64, ptr %4, align 8, !tbaa !13, !noalias !43
  %.not.i = icmp eq i64 %5, 0
  br i1 %.not.i, label %6, label %grpc_slice_buffer_take_first.exit, !prof !27

6:                                                ; preds = %2
  %7 = tail call noundef nonnull ptr @_ZN4absl12lts_2024072212log_internal17MakeCheckOpStringImlEEPNSt7__cxx1112basic_stringIcSt11char_traitsIcESaIcEEET_T0_PKc(i64 noundef 0, i64 noundef 0, ptr noundef nonnull @.str.3), !noalias !43
  call void @llvm.lifetime.start.p0(i64 16, ptr nonnull %3) #22, !noalias !43
  %8 = load ptr, ptr %7, align 8, !tbaa !46, !noalias !43
  %9 = getelementptr inbounds nuw i8, ptr %7, i64 8
  %10 = load i64, ptr %9, align 8, !tbaa !50, !noalias !43
  call void @_ZN4absl12lts_2024072212log_internal15LogMessageFatalC1EPKciSt17basic_string_viewIcSt11char_traitsIcEE(ptr noundef nonnull align 8 dereferenceable(16) %3, ptr noundef nonnull @.str, i32 noundef 496, i64 %10, ptr %8) #24, !noalias !43
  call void @_ZN4absl12lts_2024072212log_internal15LogMessageFatalD1Ev(ptr noundef nonnull align 8 dereferenceable(16) %3) #23, !noalias !43
  unreachable

grpc_slice_buffer_take_first.exit:                ; preds = %2
  %11 = getelementptr inbounds nuw i8, ptr %1, i64 8
  %12 = load ptr, ptr %11, align 8, !tbaa !17, !noalias !43
  %.sroa.0.0.copyload = load ptr, ptr %12, align 8, !tbaa !4
  %.sroa.5.0..sroa_idx = getelementptr inbounds nuw i8, ptr %12, i64 8
  %.sroa.5.0.copyload = load i64, ptr %.sroa.5.0..sroa_idx, align 8
  %.sroa.6.0..sroa_idx = getelementptr inbounds nuw i8, ptr %12, i64 16
  %.sroa.6.0..sroa_idx4 = getelementptr inbounds nuw i8, ptr %0, i64 16
  tail call void @llvm.memcpy.p0.p0.i64(ptr noundef nonnull align 8 dereferenceable(16) %.sroa.6.0..sroa_idx4, ptr noundef nonnull align 8 dereferenceable(16) %.sroa.6.0..sroa_idx, i64 16, i1 false)
  %13 = getelementptr inbounds nuw i8, ptr %12, i64 32
  store ptr %13, ptr %11, align 8, !tbaa !17, !noalias !43
  %14 = add i64 %5, -1
  store i64 %14, ptr %4, align 8, !tbaa !13, !noalias !43
  %.not7.i = icmp eq ptr %.sroa.0.0.copyload, null
  %15 = and i64 %.sroa.5.0.copyload, 255
  %16 = select i1 %.not7.i, i64 %15, i64 %.sroa.5.0.copyload
  %17 = getelementptr inbounds nuw i8, ptr %1, i64 32
  %18 = load i64, ptr %17, align 8, !tbaa !20, !noalias !43
  %19 = sub i64 %18, %16
  store i64 %19, ptr %17, align 8, !tbaa !20, !noalias !43
  store ptr %.sroa.0.0.copyload, ptr %0, align 8, !tbaa !4
  %.sroa.5.0..sroa_idx2 = getelementptr inbounds nuw i8, ptr %0, i64 8
  store i64 %.sroa.5.0.copyload, ptr %.sroa.5.0..sroa_idx2, align 8
  ret void
}